target datalayout = "e-m:e-p270:32:32-p271:32:32-p272:64:64-i64:64-i128:128-f80:128-n8:16:32:64-S128"
target triple = "x86_64-pc-linux-gnu"

%"class.boost::log::v2_mt_posix::aux::id" = type { i64 }

@_ZN5boost3log11v2_mt_posix3aux16g_hex_char_tableE = external constant [2 x [16 x i8]], align 16

; Function Attrs: inlinehint mustprogress nounwind uwtable
define linkonce_odr hidden void @_ZN5boost3log11v2_mt_posix3aux9format_idILm8EcmEEvPT0_mT1_b(ptr noundef %0, i64 noundef %1, i64 noundef %2, i1 noundef zeroext %3) #6 comdat {
  %5 = alloca ptr, align 8
  %6 = alloca i64, align 8
  %7 = alloca i64, align 8
  %8 = alloca i8, align 1
  %9 = alloca ptr, align 8
  %10 = alloca i64, align 8
  %11 = alloca i64, align 8
  %12 = alloca i64, align 8
  store ptr %0, ptr %5, align 8, !tbaa !3
  store i64 %1, ptr %6, align 8, !tbaa !9
  store i64 %2, ptr %7, align 8, !tbaa !9
  %13 = zext i1 %3 to i8
  store i8 %13, ptr %8, align 1, !tbaa !11
  call void @llvm.lifetime.start.p0(i64 8, ptr %9) #3
  %14 = load i8, ptr %8, align 1, !tbaa !11, !range !13, !noundef !14
  %15 = trunc i8 %14 to i1
  %16 = zext i1 %15 to i64
  %17 = getelementptr inbounds nuw [2 x [16 x i8]], ptr @_ZN5boost3log11v2_mt_posix3aux16g_hex_char_tableE, i64 0, i64 %16
  %18 = getelementptr inbounds [16 x i8], ptr %17, i64 0, i64 0
  store ptr %18, ptr %9, align 8, !tbaa !3
  %19 = load ptr, ptr %9, align 8, !tbaa !3
  %20 = getelementptr inbounds i8, ptr %19, i64 0
  %21 = load i8, ptr %20, align 1, !tbaa !15
  %22 = load ptr, ptr %5, align 8, !tbaa !3
  %23 = getelementptr inbounds nuw i8, ptr %22, i32 1
  store ptr %23, ptr %5, align 8, !tbaa !3
  store i8 %21, ptr %22, align 1, !tbaa !15
  %24 = load ptr, ptr %9, align 8, !tbaa !3
  %25 = getelementptr inbounds i8, ptr %24, i64 10
  %26 = load i8, ptr %25, align 1, !tbaa !15
  %27 = sext i8 %26 to i32
  %28 = add nsw i32 %27, 23
  %29 = trunc i32 %28 to i8
  %30 = load ptr, ptr %5, align 8, !tbaa !3
  %31 = getelementptr inbounds nuw i8, ptr %30, i32 1
  store ptr %31, ptr %5, align 8, !tbaa !3
  store i8 %29, ptr %30, align 1, !tbaa !15
  %32 = load i64, ptr %6, align 8, !tbaa !9
  %33 = sub i64 %32, 3
  store i64 %33, ptr %6, align 8, !tbaa !9
  call void @llvm.lifetime.start.p0(i64 8, ptr %10) #3
  store i64 0, ptr %10, align 8, !tbaa !9
  call void @llvm.lifetime.start.p0(i64 8, ptr %11) #3
  %34 = load i64, ptr %6, align 8, !tbaa !9
  %35 = icmp ugt i64 %34, 16
  br i1 %35, label %36, label %37

36:                                               ; preds = %4
  br label %39

37:                                               ; preds = %4
  %38 = load i64, ptr %6, align 8, !tbaa !9
  br label %39

39:                                               ; preds = %37, %36
  %40 = phi i64 [ 16, %36 ], [ %38, %37 ]
  store i64 %40, ptr %11, align 8, !tbaa !9
  call void @llvm.lifetime.start.p0(i64 8, ptr %12) #3
  %41 = load i64, ptr %11, align 8, !tbaa !9
  %42 = mul i64 %41, 4
  %43 = sub i64 %42, 4
  store i64 %43, ptr %12, align 8, !tbaa !9
  br label %44

44:                                               ; preds = %60, %39
  %45 = load i64, ptr %10, align 8, !tbaa !9
  %46 = load i64, ptr %11, align 8, !tbaa !9
  %47 = icmp ult i64 %45, %46
  br i1 %47, label %49, label %48

48:                                               ; preds = %44
  call void @llvm.lifetime.end.p0(i64 8, ptr %12) #3
  br label %65

49:                                               ; preds = %44
  %50 = load ptr, ptr %9, align 8, !tbaa !3
  %51 = load i64, ptr %7, align 8, !tbaa !9
  %52 = load i64, ptr %12, align 8, !tbaa !9
  %53 = lshr i64 %51, %52
  %54 = and i64 %53, 15
  %55 = getelementptr inbounds nuw i8, ptr %50, i64 %54
  %56 = load i8, ptr %55, align 1, !tbaa !15
  %57 = load ptr, ptr %5, align 8, !tbaa !3
  %58 = load i64, ptr %10, align 8, !tbaa !9
  %59 = getelementptr inbounds nuw i8, ptr %57, i64 %58
  store i8 %56, ptr %59, align 1, !tbaa !15
  br label %60

60:                                               ; preds = %49
  %61 = load i64, ptr %10, align 8, !tbaa !9
  %62 = add i64 %61, 1
  store i64 %62, ptr %10, align 8, !tbaa !9
  %63 = load i64, ptr %12, align 8, !tbaa !9
  %64 = sub i64 %63, 4
  store i64 %64, ptr %12, align 8, !tbaa !9
  br label %44, !llvm.loop !16

65:                                               ; preds = %48
  %66 = load ptr, ptr %5, align 8, !tbaa !3
  %67 = load i64, ptr %10, align 8, !tbaa !9
  %68 = getelementptr inbounds nuw i8, ptr %66, i64 %67
  store i8 0, ptr %68, align 1, !tbaa !15
  call void @llvm.lifetime.end.p0(i64 8, ptr %11) #3
  call void @llvm.lifetime.end.p0(i64 8, ptr %10) #3
  call void @llvm.lifetime.end.p0(i64 8, ptr %9) #3
  ret void
}

; Function Attrs: mustprogress nounwind uwtable
define linkonce_odr hidden noundef i64 @_ZNK5boost3log11v2_mt_posix3aux2idINS2_6threadEE9native_idEv(ptr noundef nonnull align 8 dereferenceable(8) %0) #7 comdat align 2 {
  %2 = alloca ptr, align 8
  store ptr %0, ptr %2, align 8, !tbaa !3
  %3 = load ptr, ptr %2, align 8
  %4 = getelementptr inbounds nuw %"class.boost::log::v2_mt_posix::aux::id", ptr %3, i32 0, i32 0
  %5 = load i64, ptr %4, align 8, !tbaa !18
  ret i64 %5
}

; Function Attrs: mustprogress nounwind uwtable
define hidden void @_ZN5boost3log11v2_mt_posix3aux16format_thread_idEPcmNS2_2idINS2_6threadEEE(ptr noundef %0, i64 noundef %1, i64 %2) #7 {
  %4 = alloca %"class.boost::log::v2_mt_posix::aux::id", align 8
  %5 = alloca ptr, align 8
  %6 = alloca i64, align 8
  %7 = getelementptr inbounds nuw %"class.boost::log::v2_mt_posix::aux::id", ptr %4, i32 0, i32 0
  store i64 %2, ptr %7, align 8
  store ptr %0, ptr %5, align 8, !tbaa !3
  store i64 %1, ptr %6, align 8, !tbaa !9
  %8 = load ptr, ptr %5, align 8, !tbaa !3
  %9 = load i64, ptr %6, align 8, !tbaa !9
  %10 = call noundef i64 @_ZNK5boost3log11v2_mt_posix3aux2idINS2_6threadEE9native_idEv(ptr noundef nonnull align 8 dereferenceable(8) %4) #3
  call void @_ZN5boost3log11v2_mt_posix3aux9format_idILm8EcmEEvPT0_mT1_b(ptr noundef %8, i64 noundef %9, i64 noundef %10, i1 noundef zeroext false) #3
  ret void
}