; Function Attrs: mustprogress nofree norecurse nosync nounwind memory(argmem: write) uwtable
define hidden void @_ZN5boost3log11v2_mt_posix3aux16format_thread_idEPcmNS2_2idINS2_6threadEEE(ptr nocapture noundef writeonly %0, i64 noundef %1, i64 %2) local_unnamed_addr #9 {
  %4 = load i8, ptr @_ZN5boost3log11v2_mt_posix3aux16g_hex_char_tableE, align 16, !tbaa !19
  %5 = getelementptr inbounds nuw i8, ptr %0, i64 1
  store i8 %4, ptr %0, align 1, !tbaa !19
  %6 = load i8, ptr getelementptr inbounds (i8, ptr @_ZN5boost3log11v2_mt_posix3aux16g_hex_char_tableE, i64 10), align 2, !tbaa !19
  %7 = add i8 %6, 23
  %8 = getelementptr inbounds nuw i8, ptr %0, i64 2
  store i8 %7, ptr %5, align 1, !tbaa !19
  %9 = add i64 %1, -3
  %.not.i = icmp eq i64 %9, 0
  br i1 %.not.i, label %_ZN5boost3log11v2_mt_posix3aux9format_idILm8EcmEEvPT0_mT1_b.exit, label %.lr.ph.preheader.i

.lr.ph.preheader.i:                               ; preds = %3
  %10 = tail call i64 @llvm.umin.i64(i64 %9, i64 16)
  %11 = shl nuw nsw i64 %10, 2
  br label %.lr.ph.i

.lr.ph.i:                                         ; preds = %.lr.ph.i, %.lr.ph.preheader.i
  %.0.in21.i = phi i64 [ %.0.i, %.lr.ph.i ], [ %11, %.lr.ph.preheader.i ]
  %.01920.i = phi i64 [ %17, %.lr.ph.i ], [ 0, %.lr.ph.preheader.i ]
  %.0.i = add nsw i64 %.0.in21.i, -4
  %12 = lshr i64 %2, %.0.i
  %13 = and i64 %12, 15
  %14 = getelementptr inbounds nuw i8, ptr @_ZN5boost3log11v2_mt_posix3aux16g_hex_char_tableE, i64 %13
  %15 = load i8, ptr %14, align 1, !tbaa !19
  %16 = getelementptr inbounds nuw i8, ptr %8, i64 %.01920.i
  store i8 %15, ptr %16, align 1, !tbaa !19
  %17 = add nuw nsw i64 %.01920.i, 1
  %exitcond.not.i = icmp eq i64 %17, %10
  br i1 %exitcond.not.i, label %_ZN5boost3log11v2_mt_posix3aux9format_idILm8EcmEEvPT0_mT1_b.exit, label %.lr.ph.i, !llvm.loop !20

_ZN5boost3log11v2_mt_posix3aux9format_idILm8EcmEEvPT0_mT1_b.exit: ; preds = %.lr.ph.i, %3
  %.019.lcssa.i = phi i64 [ 0, %3 ], [ %10, %.lr.ph.i ]
  %18 = getelementptr inbounds nuw i8, ptr %8, i64 %.019.lcssa.i
  store i8 0, ptr %18, align 1, !tbaa !19
  ret void
}